target datalayout = "e-m:e-p270:32:32-p271:32:32-p272:64:64-i64:64-i128:128-f80:128-n8:16:32:64-S128"
target triple = "x86_64-pc-linux-gnu"

%struct.CordRep = type { %struct.Generic, %union.ConcatOrFunc }
%struct.Generic = type { i8, i8, i8, i8, i64 }
%union.ConcatOrFunc = type { %struct.Concatenation }
%struct.Concatenation = type { ptr, ptr }
%struct.Function = type { ptr, ptr }

@stderr = external global ptr, align 8
@.str = private unnamed_addr constant [4 x i8] c"%s\0A\00", align 1
@.str.3 = private unnamed_addr constant [31 x i8] c"2nd arg to CORD_riter4 too big\00", align 1

; Function Attrs: nounwind uwtable
define i32 @CORD_riter4(ptr noundef %0, i64 noundef %1, ptr noundef %2, ptr noundef %3) #0 {
  %5 = alloca i32, align 4
  %6 = alloca ptr, align 8
  %7 = alloca i64, align 8
  %8 = alloca ptr, align 8
  %9 = alloca ptr, align 8
  %10 = alloca ptr, align 8
  %11 = alloca i8, align 1
  %12 = alloca i32, align 4
  %13 = alloca ptr, align 8
  %14 = alloca ptr, align 8
  %15 = alloca i64, align 8
  %16 = alloca ptr, align 8
  %17 = alloca i64, align 8
  store ptr %0, ptr %6, align 8, !tbaa !7
  store i64 %1, ptr %7, align 8, !tbaa !13
  store ptr %2, ptr %8, align 8, !tbaa !3
  store ptr %3, ptr %9, align 8, !tbaa !3
  %18 = load ptr, ptr %6, align 8, !tbaa !7
  %19 = icmp eq ptr null, %18
  br i1 %19, label %20, label %21

20:                                               ; preds = %4
  store i32 0, ptr %5, align 4
  br label %196

21:                                               ; preds = %4
  %22 = load ptr, ptr %6, align 8, !tbaa !7
  %23 = load i8, ptr %22, align 1, !tbaa !17
  %24 = sext i8 %23 to i32
  %25 = icmp ne i32 %24, 0
  br i1 %25, label %26, label %61

26:                                               ; preds = %21
  call void @llvm.lifetime.start.p0(i64 8, ptr %10) #9
  %27 = load ptr, ptr %6, align 8, !tbaa !7
  %28 = load i64, ptr %7, align 8, !tbaa !13
  %29 = getelementptr inbounds nuw i8, ptr %27, i64 %28
  store ptr %29, ptr %10, align 8, !tbaa !7
  br label %30

30:                                               ; preds = %56, %26
  call void @llvm.lifetime.start.p0(i64 1, ptr %11) #9
  %31 = load ptr, ptr %10, align 8, !tbaa !7
  %32 = load i8, ptr %31, align 1, !tbaa !17
  store i8 %32, ptr %11, align 1, !tbaa !17
  %33 = load i8, ptr %11, align 1, !tbaa !17
  %34 = sext i8 %33 to i32
  %35 = icmp eq i32 %34, 0
  br i1 %35, label %36, label %39

36:                                               ; preds = %30
  %37 = load ptr, ptr @stderr, align 8, !tbaa !9
  %38 = call i32 (ptr, ptr, ...) @fprintf(ptr noundef %37, ptr noundef @.str, ptr noundef @.str.3) #9
  call void @abort() #12
  unreachable

39:                                               ; preds = %30
  %40 = load ptr, ptr %8, align 8, !tbaa !3
  %41 = load i8, ptr %11, align 1, !tbaa !17
  %42 = load ptr, ptr %9, align 8, !tbaa !3
  %43 = call i32 %40(i8 noundef signext %41, ptr noundef %42)
  %44 = icmp ne i32 %43, 0
  br i1 %44, label %45, label %46

45:                                               ; preds = %39
  store i32 1, ptr %5, align 4
  store i32 1, ptr %12, align 4
  br label %54

46:                                               ; preds = %39
  %47 = load ptr, ptr %10, align 8, !tbaa !7
  %48 = load ptr, ptr %6, align 8, !tbaa !7
  %49 = icmp eq ptr %47, %48
  br i1 %49, label %50, label %51

50:                                               ; preds = %46
  store i32 2, ptr %12, align 4
  br label %54

51:                                               ; preds = %46
  %52 = load ptr, ptr %10, align 8, !tbaa !7
  %53 = getelementptr inbounds i8, ptr %52, i32 -1
  store ptr %53, ptr %10, align 8, !tbaa !7
  store i32 0, ptr %12, align 4
  br label %54

54:                                               ; preds = %51, %50, %45
  call void @llvm.lifetime.end.p0(i64 1, ptr %11) #9
  %55 = load i32, ptr %12, align 4
  switch i32 %55, label %58 [
    i32 0, label %56
    i32 2, label %57
  ]

56:                                               ; preds = %54
  br label %30

57:                                               ; preds = %54
  store i32 0, ptr %12, align 4
  br label %58

58:                                               ; preds = %57, %54
  call void @llvm.lifetime.end.p0(i64 8, ptr %10) #9
  %59 = load i32, ptr %12, align 4
  switch i32 %59, label %198 [
    i32 0, label %60
    i32 1, label %196
  ]

60:                                               ; preds = %58
  br label %195

61:                                               ; preds = %21
  %62 = load ptr, ptr %6, align 8, !tbaa !7
  %63 = getelementptr inbounds nuw %struct.CordRep, ptr %62, i32 0, i32 0
  %64 = getelementptr inbounds nuw %struct.Generic, ptr %63, i32 0, i32 1
  %65 = load i8, ptr %64, align 1, !tbaa !19
  %66 = sext i8 %65 to i32
  %67 = icmp eq i32 %66, 1
  br i1 %67, label %68, label %164

68:                                               ; preds = %61
  call void @llvm.lifetime.start.p0(i64 8, ptr %13) #9
  %69 = load ptr, ptr %6, align 8, !tbaa !7
  %70 = getelementptr inbounds nuw %struct.CordRep, ptr %69, i32 0, i32 1
  store ptr %70, ptr %13, align 8, !tbaa !22
  call void @llvm.lifetime.start.p0(i64 8, ptr %14) #9
  %71 = load ptr, ptr %13, align 8, !tbaa !22
  %72 = getelementptr inbounds nuw %struct.Concatenation, ptr %71, i32 0, i32 0
  %73 = load ptr, ptr %72, align 8, !tbaa !26
  store ptr %73, ptr %14, align 8, !tbaa !7
  call void @llvm.lifetime.start.p0(i64 8, ptr %15) #9
  %74 = load ptr, ptr %6, align 8, !tbaa !7
  %75 = getelementptr inbounds nuw %struct.CordRep, ptr %74, i32 0, i32 0
  %76 = getelementptr inbounds nuw %struct.Generic, ptr %75, i32 0, i32 3
  %77 = load i8, ptr %76, align 1, !tbaa !35
  %78 = zext i8 %77 to i32
  %79 = icmp ne i32 %78, 0
  br i1 %79, label %80, label %86

80:                                               ; preds = %68
  %81 = load ptr, ptr %6, align 8, !tbaa !7
  %82 = getelementptr inbounds nuw %struct.CordRep, ptr %81, i32 0, i32 0
  %83 = getelementptr inbounds nuw %struct.Generic, ptr %82, i32 0, i32 3
  %84 = load i8, ptr %83, align 1, !tbaa !35
  %85 = zext i8 %84 to i64
  br label %133

86:                                               ; preds = %68
  %87 = load ptr, ptr %6, align 8, !tbaa !7
  %88 = getelementptr inbounds nuw %struct.CordRep, ptr %87, i32 0, i32 1
  %89 = getelementptr inbounds nuw %struct.Concatenation, ptr %88, i32 0, i32 0
  %90 = load ptr, ptr %89, align 8, !tbaa !17
  %91 = load i8, ptr %90, align 1, !tbaa !17
  %92 = sext i8 %91 to i32
  %93 = icmp ne i32 %92, 0
  br i1 %93, label %94, label %123

94:                                               ; preds = %86
  %95 = load ptr, ptr %6, align 8, !tbaa !7
  %96 = getelementptr inbounds nuw %struct.CordRep, ptr %95, i32 0, i32 0
  %97 = getelementptr inbounds nuw %struct.Generic, ptr %96, i32 0, i32 4
  %98 = load i64, ptr %97, align 8, !tbaa !24
  %99 = load ptr, ptr %6, align 8, !tbaa !7
  %100 = getelementptr inbounds nuw %struct.CordRep, ptr %99, i32 0, i32 1
  %101 = getelementptr inbounds nuw %struct.Concatenation, ptr %100, i32 0, i32 1
  %102 = load ptr, ptr %101, align 8, !tbaa !17
  %103 = load i8, ptr %102, align 1, !tbaa !17
  %104 = sext i8 %103 to i32
  %105 = icmp ne i32 %104, 0
  br i1 %105, label %106, label %112

106:                                              ; preds = %94
  %107 = load ptr, ptr %6, align 8, !tbaa !7
  %108 = getelementptr inbounds nuw %struct.CordRep, ptr %107, i32 0, i32 1
  %109 = getelementptr inbounds nuw %struct.Concatenation, ptr %108, i32 0, i32 1
  %110 = load ptr, ptr %109, align 8, !tbaa !17
  %111 = call i64 @strlen(ptr noundef %110) #10
  br label %120

112:                                              ; preds = %94
  %113 = load ptr, ptr %6, align 8, !tbaa !7
  %114 = getelementptr inbounds nuw %struct.CordRep, ptr %113, i32 0, i32 1
  %115 = getelementptr inbounds nuw %struct.Concatenation, ptr %114, i32 0, i32 1
  %116 = load ptr, ptr %115, align 8, !tbaa !17
  %117 = getelementptr inbounds nuw %struct.CordRep, ptr %116, i32 0, i32 0
  %118 = getelementptr inbounds nuw %struct.Generic, ptr %117, i32 0, i32 4
  %119 = load i64, ptr %118, align 8, !tbaa !24
  br label %120

120:                                              ; preds = %112, %106
  %121 = phi i64 [ %111, %106 ], [ %119, %112 ]
  %122 = sub i64 %98, %121
  br label %131

123:                                              ; preds = %86
  %124 = load ptr, ptr %6, align 8, !tbaa !7
  %125 = getelementptr inbounds nuw %struct.CordRep, ptr %124, i32 0, i32 1
  %126 = getelementptr inbounds nuw %struct.Concatenation, ptr %125, i32 0, i32 0
  %127 = load ptr, ptr %126, align 8, !tbaa !17
  %128 = getelementptr inbounds nuw %struct.CordRep, ptr %127, i32 0, i32 0
  %129 = getelementptr inbounds nuw %struct.Generic, ptr %128, i32 0, i32 4
  %130 = load i64, ptr %129, align 8, !tbaa !24
  br label %131

131:                                              ; preds = %123, %120
  %132 = phi i64 [ %122, %120 ], [ %130, %123 ]
  br label %133

133:                                              ; preds = %131, %80
  %134 = phi i64 [ %85, %80 ], [ %132, %131 ]
  store i64 %134, ptr %15, align 8, !tbaa !13
  %135 = load i64, ptr %7, align 8, !tbaa !13
  %136 = load i64, ptr %15, align 8, !tbaa !13
  %137 = icmp uge i64 %135, %136
  br i1 %137, label %138, label %157

138:                                              ; preds = %133
  %139 = load ptr, ptr %13, align 8, !tbaa !22
  %140 = getelementptr inbounds nuw %struct.Concatenation, ptr %139, i32 0, i32 1
  %141 = load ptr, ptr %140, align 8, !tbaa !28
  %142 = load i64, ptr %7, align 8, !tbaa !13
  %143 = load i64, ptr %15, align 8, !tbaa !13
  %144 = sub i64 %142, %143
  %145 = load ptr, ptr %8, align 8, !tbaa !3
  %146 = load ptr, ptr %9, align 8, !tbaa !3
  %147 = call i32 @CORD_riter4(ptr noundef %141, i64 noundef %144, ptr noundef %145, ptr noundef %146)
  %148 = icmp ne i32 %147, 0
  br i1 %148, label %149, label %150

149:                                              ; preds = %138
  store i32 1, ptr %5, align 4
  store i32 1, ptr %12, align 4
  br label %163

150:                                              ; preds = %138
  %151 = load ptr, ptr %14, align 8, !tbaa !7
  %152 = load i64, ptr %15, align 8, !tbaa !13
  %153 = sub i64 %152, 1
  %154 = load ptr, ptr %8, align 8, !tbaa !3
  %155 = load ptr, ptr %9, align 8, !tbaa !3
  %156 = call i32 @CORD_riter4(ptr noundef %151, i64 noundef %153, ptr noundef %154, ptr noundef %155)
  store i32 %156, ptr %5, align 4
  store i32 1, ptr %12, align 4
  br label %163

157:                                              ; preds = %133
  %158 = load ptr, ptr %14, align 8, !tbaa !7
  %159 = load i64, ptr %7, align 8, !tbaa !13
  %160 = load ptr, ptr %8, align 8, !tbaa !3
  %161 = load ptr, ptr %9, align 8, !tbaa !3
  %162 = call i32 @CORD_riter4(ptr noundef %158, i64 noundef %159, ptr noundef %160, ptr noundef %161)
  store i32 %162, ptr %5, align 4
  store i32 1, ptr %12, align 4
  br label %163

163:                                              ; preds = %157, %150, %149
  call void @llvm.lifetime.end.p0(i64 8, ptr %15) #9
  call void @llvm.lifetime.end.p0(i64 8, ptr %14) #9
  call void @llvm.lifetime.end.p0(i64 8, ptr %13) #9
  br label %196

164:                                              ; preds = %61
  call void @llvm.lifetime.start.p0(i64 8, ptr %16) #9
  %165 = load ptr, ptr %6, align 8, !tbaa !7
  %166 = getelementptr inbounds nuw %struct.CordRep, ptr %165, i32 0, i32 1
  store ptr %166, ptr %16, align 8, !tbaa !29
  call void @llvm.lifetime.start.p0(i64 8, ptr %17) #9
  %167 = load i64, ptr %7, align 8, !tbaa !13
  store i64 %167, ptr %17, align 8, !tbaa !13
  br label %168

168:                                              ; preds = %187, %164
  %169 = load ptr, ptr %8, align 8, !tbaa !3
  %170 = load ptr, ptr %16, align 8, !tbaa !29
  %171 = getelementptr inbounds nuw %struct.Function, ptr %170, i32 0, i32 0
  %172 = load ptr, ptr %171, align 8, !tbaa !31
  %173 = load i64, ptr %17, align 8, !tbaa !13
  %174 = load ptr, ptr %16, align 8, !tbaa !29
  %175 = getelementptr inbounds nuw %struct.Function, ptr %174, i32 0, i32 1
  %176 = load ptr, ptr %175, align 8, !tbaa !33
  %177 = call signext i8 %172(i64 noundef %173, ptr noundef %176)
  %178 = load ptr, ptr %9, align 8, !tbaa !3
  %179 = call i32 %169(i8 noundef signext %177, ptr noundef %178)
  %180 = icmp ne i32 %179, 0
  br i1 %180, label %181, label %182

181:                                              ; preds = %168
  store i32 1, ptr %5, align 4
  store i32 1, ptr %12, align 4
  br label %191

182:                                              ; preds = %168
  %183 = load i64, ptr %17, align 8, !tbaa !13
  %184 = icmp eq i64 0, %183
  br i1 %184, label %185, label %186

185:                                              ; preds = %182
  br label %190

186:                                              ; preds = %182
  br label %187

187:                                              ; preds = %186
  %188 = load i64, ptr %17, align 8, !tbaa !13
  %189 = add i64 %188, -1
  store i64 %189, ptr %17, align 8, !tbaa !13
  br label %168

190:                                              ; preds = %185
  store i32 0, ptr %12, align 4
  br label %191

191:                                              ; preds = %190, %181
  call void @llvm.lifetime.end.p0(i64 8, ptr %17) #9
  call void @llvm.lifetime.end.p0(i64 8, ptr %16) #9
  %192 = load i32, ptr %12, align 4
  switch i32 %192, label %198 [
    i32 0, label %193
    i32 1, label %196
  ]

193:                                              ; preds = %191
  br label %194

194:                                              ; preds = %193
  br label %195

195:                                              ; preds = %194, %60
  store i32 0, ptr %5, align 4
  br label %196

196:                                              ; preds = %195, %191, %163, %58, %20
  %197 = load i32, ptr %5, align 4
  ret i32 %197

198:                                              ; preds = %191, %58
  unreachable
}