; Function Attrs: nounwind uwtable
define range(i32 0, 2) i32 @CORD_riter4(ptr noundef readonly %0, i64 noundef %1, ptr noundef readonly captures(none) %2, ptr noundef %3) local_unnamed_addr #2 {
  br label %tailrecurse.outer

tailrecurse.outer:                                ; preds = %52, %4
  %.tr.ph = phi ptr [ %26, %52 ], [ %0, %4 ]
  %.tr72.ph = phi i64 [ %57, %52 ], [ %1, %4 ]
  br label %tailrecurse

tailrecurse:                                      ; preds = %tailrecurse.outer, %50
  %.tr = phi ptr [ %26, %50 ], [ %.tr.ph, %tailrecurse.outer ]
  %5 = icmp eq ptr %.tr, null
  br i1 %5, label %.loopexit, label %6

6:                                                ; preds = %tailrecurse
  %7 = load i8, ptr %.tr, align 1, !tbaa !11
  %.not = icmp eq i8 %7, 0
  br i1 %.not, label %20, label %8

8:                                                ; preds = %6
  %9 = getelementptr inbounds nuw i8, ptr %.tr, i64 %.tr72.ph
  br label %10

10:                                               ; preds = %16, %8
  %.051 = phi ptr [ %9, %8 ], [ %.152, %16 ]
  %11 = load i8, ptr %.051, align 1, !tbaa !11
  %12 = icmp eq i8 %11, 0
  br i1 %12, label %13, label %16

13:                                               ; preds = %10
  %14 = load ptr, ptr @stderr, align 8, !tbaa !7
  %15 = tail call i32 (ptr, ptr, ...) @fprintf(ptr noundef %14, ptr noundef nonnull @.str, ptr noundef nonnull @.str.3) #20
  tail call void @abort() #21
  unreachable

16:                                               ; preds = %10
  %17 = tail call i32 %2(i8 noundef signext %11, ptr noundef %3) #17
  %.not66 = icmp eq i32 %17, 0
  %18 = icmp ne ptr %.051, %.tr
  %spec.select = select i1 %18, i32 0, i32 2
  %.053 = select i1 %.not66, i32 %spec.select, i32 1
  %narrow = and i1 %18, %.not66
  %.152.idx = sext i1 %narrow to i64
  %.152 = getelementptr inbounds i8, ptr %.051, i64 %.152.idx
  switch i32 %.053, label %19 [
    i32 0, label %10
    i32 2, label %.thread
  ]

19:                                               ; preds = %16
  br i1 %narrow, label %.thread, label %.loopexit

20:                                               ; preds = %6
  %21 = getelementptr inbounds nuw i8, ptr %.tr, i64 1
  %22 = load i8, ptr %21, align 1, !tbaa !13
  %23 = icmp eq i8 %22, 1
  %24 = getelementptr inbounds nuw i8, ptr %.tr, i64 16
  br i1 %23, label %25, label %58

25:                                               ; preds = %20
  %26 = load ptr, ptr %24, align 8, !tbaa !19
  %27 = getelementptr inbounds nuw i8, ptr %.tr, i64 3
  %28 = load i8, ptr %27, align 1, !tbaa !27
  %.not61 = icmp eq i8 %28, 0
  br i1 %.not61, label %31, label %29

29:                                               ; preds = %25
  %30 = zext i8 %28 to i64
  br label %50

31:                                               ; preds = %25
  %32 = load i8, ptr %26, align 1, !tbaa !11
  %.not62 = icmp eq i8 %32, 0
  br i1 %.not62, label %47, label %33

33:                                               ; preds = %31
  %34 = getelementptr inbounds nuw i8, ptr %.tr, i64 8
  %35 = load i64, ptr %34, align 8, !tbaa !17
  %36 = getelementptr inbounds nuw i8, ptr %.tr, i64 24
  %37 = load ptr, ptr %36, align 8, !tbaa !11
  %38 = load i8, ptr %37, align 1, !tbaa !11
  %.not63 = icmp eq i8 %38, 0
  br i1 %.not63, label %41, label %39

39:                                               ; preds = %33
  %40 = tail call i64 @strlen(ptr noundef nonnull dereferenceable(1) %37) #18
  br label %44

41:                                               ; preds = %33
  %42 = getelementptr inbounds nuw i8, ptr %37, i64 8
  %43 = load i64, ptr %42, align 8, !tbaa !17
  br label %44

44:                                               ; preds = %41, %39
  %45 = phi i64 [ %40, %39 ], [ %43, %41 ]
  %46 = sub i64 %35, %45
  br label %50

47:                                               ; preds = %31
  %48 = getelementptr inbounds nuw i8, ptr %26, i64 8
  %49 = load i64, ptr %48, align 8, !tbaa !17
  br label %50

50:                                               ; preds = %44, %47, %29
  %51 = phi i64 [ %30, %29 ], [ %46, %44 ], [ %49, %47 ]
  %.not64 = icmp ult i64 %.tr72.ph, %51
  br i1 %.not64, label %tailrecurse, label %52

52:                                               ; preds = %50
  %53 = getelementptr inbounds nuw i8, ptr %.tr, i64 24
  %54 = load ptr, ptr %53, align 8, !tbaa !22
  %55 = sub nuw i64 %.tr72.ph, %51
  %56 = tail call i32 @CORD_riter4(ptr noundef %54, i64 noundef %55, ptr noundef %2, ptr noundef %3)
  %.not65 = icmp eq i32 %56, 0
  %57 = add i64 %51, -1
  br i1 %.not65, label %tailrecurse.outer, label %.loopexit

58:                                               ; preds = %20
  %59 = getelementptr inbounds nuw i8, ptr %.tr, i64 24
  br label %60

60:                                               ; preds = %60, %58
  %.0 = phi i64 [ %.tr72.ph, %58 ], [ %66, %60 ]
  %61 = load ptr, ptr %24, align 8, !tbaa !23
  %62 = load ptr, ptr %59, align 8, !tbaa !25
  %63 = tail call signext i8 %61(i64 noundef %.0, ptr noundef %62) #17
  %64 = tail call i32 %2(i8 noundef signext %63, ptr noundef %3) #17
  %.not60 = icmp ne i32 %64, 0
  %65 = icmp eq i64 %.0, 0
  %or.cond = or i1 %65, %.not60
  %66 = add i64 %.0, -1
  br i1 %or.cond, label %67, label %60

67:                                               ; preds = %60
  br i1 %.not60, label %.loopexit, label %.thread

.thread:                                          ; preds = %16, %67, %19
  br label %.loopexit

.loopexit:                                        ; preds = %52, %tailrecurse, %67, %19, %.thread
  %.050 = phi i32 [ 1, %19 ], [ 0, %.thread ], [ 1, %67 ], [ 0, %tailrecurse ], [ 1, %52 ]
  ret i32 %.050
}